target datalayout = "e-m:e-p270:32:32-p271:32:32-p272:64:64-i64:64-i128:128-f80:128-n8:16:32:64-S128"
target triple = "x86_64-pc-linux-gnu"

%class.State = type { [315 x i32], [315 x i16], i32, ptr, [2 x ptr] }
%class.Node = type <{ ptr, ptr, ptr, i32, i32, i32, i32, i32, i32, i32, [4 x i8] }>

@UseAVX = external global i32, align 4
@_ZN19Abstract_VM_Version9_featuresE = external global i64, align 8

; Function Attrs: mustprogress nounwind uwtable
define linkonce_odr hidden noundef zeroext i1 @_ZN10VM_Version17supports_avx512vlEv() #1 comdat align 2 {
  %1 = load i64, ptr @_ZN19Abstract_VM_Version9_featuresE, align 8
  %2 = and i64 %1, 8589934592
  %3 = icmp ne i64 %2, 0
  ret i1 %3
}

; Function Attrs: mustprogress nounwind uwtable
define linkonce_odr hidden noundef zeroext i1 @_ZN10VM_Version17supports_avx512bwEv() #1 comdat align 2 {
  %1 = load i64, ptr @_ZN19Abstract_VM_Version9_featuresE, align 8
  %2 = and i64 %1, 4294967296
  %3 = icmp ne i64 %2, 0
  ret i1 %3
}

; Function Attrs: mustprogress nounwind uwtable
define linkonce_odr hidden noundef zeroext i1 @_ZN10VM_Version13supports_evexEv() #1 comdat align 2 {
  %1 = load i64, ptr @_ZN19Abstract_VM_Version9_featuresE, align 8
  %2 = and i64 %1, 134217728
  %3 = icmp ne i64 %2, 0
  ret i1 %3
}

; Function Attrs: mustprogress nounwind uwtable
define linkonce_odr hidden noundef ptr @_ZNK4Node2inEj(ptr noundef nonnull align 8 dereferenceable(52) %0, i32 noundef %1) #1 comdat align 2 {
  %3 = alloca ptr, align 8
  %4 = alloca i32, align 4
  store ptr %0, ptr %3, align 8
  store i32 %1, ptr %4, align 4
  %5 = load ptr, ptr %3, align 8
  %6 = getelementptr inbounds %class.Node, ptr %5, i32 0, i32 1
  %7 = load ptr, ptr %6, align 8
  %8 = load i32, ptr %4, align 4
  %9 = zext i32 %8 to i64
  %10 = getelementptr inbounds ptr, ptr %7, i64 %9
  %11 = load ptr, ptr %10, align 8
  ret ptr %11
}

; Function Attrs: mustprogress nounwind uwtable
define linkonce_odr hidden noundef zeroext i1 @_ZN10VM_Version19supports_avx512vlbwEv() #1 comdat align 2 {
  %1 = call noundef zeroext i1 @_ZN10VM_Version13supports_evexEv()
  br i1 %1, label %2, label %6

2:                                                ; preds = %0
  %3 = call noundef zeroext i1 @_ZN10VM_Version17supports_avx512bwEv()
  br i1 %3, label %4, label %6

4:                                                ; preds = %2
  %5 = call noundef zeroext i1 @_ZN10VM_Version17supports_avx512vlEv()
  br label %6

6:                                                ; preds = %4, %2, %0
  %7 = phi i1 [ false, %2 ], [ false, %0 ], [ %5, %4 ]
  ret i1 %7
}

; Function Attrs: mustprogress nounwind uwtable
define hidden void @_ZN5State21_sub_Op_VectorCastS2XEPK4Node(ptr noundef nonnull align 8 dereferenceable(1920) %0, ptr noundef %1) #1 align 2 {
  %3 = alloca ptr, align 8
  %4 = alloca ptr, align 8
  %5 = alloca i32, align 4
  %6 = alloca i32, align 4
  %7 = alloca i32, align 4
  store ptr %0, ptr %3, align 8
  store ptr %1, ptr %4, align 8
  %8 = load ptr, ptr %3, align 8
  %9 = getelementptr inbounds %class.State, ptr %8, i32 0, i32 4
  %10 = getelementptr inbounds [2 x ptr], ptr %9, i64 0, i64 0
  %11 = load ptr, ptr %10, align 8
  %12 = icmp ne ptr %11, null
  br i1 %12, label %13, label %54

13:                                               ; preds = %2
  %14 = getelementptr inbounds %class.State, ptr %8, i32 0, i32 4
  %15 = getelementptr inbounds [2 x ptr], ptr %14, i64 0, i64 0
  %16 = load ptr, ptr %15, align 8
  %17 = getelementptr inbounds %class.State, ptr %16, i32 0, i32 1
  %18 = getelementptr inbounds [315 x i16], ptr %17, i64 0, i64 114
  %19 = load i16, ptr %18, align 4
  %20 = zext i16 %19 to i32
  %21 = and i32 %20, 1
  %22 = icmp ne i32 %21, 0
  br i1 %22, label %23, label %54

23:                                               ; preds = %13
  %24 = load i32, ptr @UseAVX, align 4
  %25 = icmp sgt i32 %24, 2
  br i1 %25, label %26, label %28

26:                                               ; preds = %23
  %27 = call noundef zeroext i1 @_ZN10VM_Version19supports_avx512vlbwEv()
  br i1 %27, label %35, label %28

28:                                               ; preds = %26, %23
  %29 = load ptr, ptr %4, align 8
  %30 = call noundef i32 @_ZN7Matcher22vector_length_in_bytesEPK4Node(ptr noundef %29)
  %31 = load ptr, ptr %4, align 8
  %32 = call noundef ptr @_ZNK4Node2inEj(ptr noundef nonnull align 8 dereferenceable(52) %31, i32 noundef 1)
  %33 = call noundef i32 @_ZN7Matcher22vector_length_in_bytesEPK4Node(ptr noundef %32)
  %34 = icmp uge i32 %30, %33
  br i1 %34, label %35, label %54

35:                                               ; preds = %28, %26
  %36 = getelementptr inbounds %class.State, ptr %8, i32 0, i32 4
  %37 = getelementptr inbounds [2 x ptr], ptr %36, i64 0, i64 0
  %38 = load ptr, ptr %37, align 8
  %39 = getelementptr inbounds %class.State, ptr %38, i32 0, i32 0
  %40 = getelementptr inbounds [315 x i32], ptr %39, i64 0, i64 114
  %41 = load i32, ptr %40, align 8
  %42 = add i32 %41, 100
  store i32 %42, ptr %5, align 4
  %43 = load i32, ptr %5, align 4
  %44 = getelementptr inbounds %class.State, ptr %8, i32 0, i32 0
  %45 = getelementptr inbounds [315 x i32], ptr %44, i64 0, i64 114
  store i32 %43, ptr %45, align 8
  %46 = getelementptr inbounds %class.State, ptr %8, i32 0, i32 1
  %47 = getelementptr inbounds [315 x i16], ptr %46, i64 0, i64 114
  store i16 1015, ptr %47, align 4
  %48 = load i32, ptr %5, align 4
  %49 = add i32 %48, 100
  %50 = getelementptr inbounds %class.State, ptr %8, i32 0, i32 0
  %51 = getelementptr inbounds [315 x i32], ptr %50, i64 0, i64 115
  store i32 %49, ptr %51, align 4
  %52 = getelementptr inbounds %class.State, ptr %8, i32 0, i32 1
  %53 = getelementptr inbounds [315 x i16], ptr %52, i64 0, i64 115
  store i16 731, ptr %53, align 2
  br label %54

54:                                               ; preds = %35, %28, %13, %2
  %55 = getelementptr inbounds %class.State, ptr %8, i32 0, i32 4
  %56 = getelementptr inbounds [2 x ptr], ptr %55, i64 0, i64 0
  %57 = load ptr, ptr %56, align 8
  %58 = icmp ne ptr %57, null
  br i1 %58, label %59, label %132

59:                                               ; preds = %54
  %60 = getelementptr inbounds %class.State, ptr %8, i32 0, i32 4
  %61 = getelementptr inbounds [2 x ptr], ptr %60, i64 0, i64 0
  %62 = load ptr, ptr %61, align 8
  %63 = getelementptr inbounds %class.State, ptr %62, i32 0, i32 1
  %64 = getelementptr inbounds [315 x i16], ptr %63, i64 0, i64 114
  %65 = load i16, ptr %64, align 4
  %66 = zext i16 %65 to i32
  %67 = and i32 %66, 1
  %68 = icmp ne i32 %67, 0
  br i1 %68, label %69, label %132

69:                                               ; preds = %59
  %70 = load i32, ptr @UseAVX, align 4
  %71 = icmp sle i32 %70, 2
  br i1 %71, label %74, label %72

72:                                               ; preds = %69
  %73 = call noundef zeroext i1 @_ZN10VM_Version19supports_avx512vlbwEv()
  br i1 %73, label %132, label %74

74:                                               ; preds = %72, %69
  %75 = load ptr, ptr %4, align 8
  %76 = call noundef ptr @_ZNK4Node2inEj(ptr noundef nonnull align 8 dereferenceable(52) %75, i32 noundef 1)
  %77 = call noundef i32 @_ZN7Matcher13vector_lengthEPK4Node(ptr noundef %76)
  %78 = icmp eq i32 %77, 16
  br i1 %78, label %79, label %132

79:                                               ; preds = %74
  %80 = load ptr, ptr %4, align 8
  %81 = call noundef zeroext i8 @_ZN7Matcher25vector_element_basic_typeEPK4Node(ptr noundef %80)
  %82 = zext i8 %81 to i32
  %83 = icmp eq i32 %82, 8
  br i1 %83, label %84, label %132

84:                                               ; preds = %79
  %85 = getelementptr inbounds %class.State, ptr %8, i32 0, i32 4
  %86 = getelementptr inbounds [2 x ptr], ptr %85, i64 0, i64 0
  %87 = load ptr, ptr %86, align 8
  %88 = getelementptr inbounds %class.State, ptr %87, i32 0, i32 0
  %89 = getelementptr inbounds [315 x i32], ptr %88, i64 0, i64 114
  %90 = load i32, ptr %89, align 8
  %91 = add i32 %90, 100
  store i32 %91, ptr %6, align 4
  %92 = getelementptr inbounds %class.State, ptr %8, i32 0, i32 1
  %93 = getelementptr inbounds [315 x i16], ptr %92, i64 0, i64 114
  %94 = load i16, ptr %93, align 4
  %95 = zext i16 %94 to i32
  %96 = and i32 %95, 1
  %97 = icmp eq i32 %96, 0
  br i1 %97, label %104, label %98

98:                                               ; preds = %84
  %99 = getelementptr inbounds %class.State, ptr %8, i32 0, i32 0
  %100 = getelementptr inbounds [315 x i32], ptr %99, i64 0, i64 114
  %101 = load i32, ptr %100, align 8
  %102 = load i32, ptr %6, align 4
  %103 = icmp ugt i32 %101, %102
  br i1 %103, label %104, label %110

104:                                              ; preds = %98, %84
  %105 = load i32, ptr %6, align 4
  %106 = getelementptr inbounds %class.State, ptr %8, i32 0, i32 0
  %107 = getelementptr inbounds [315 x i32], ptr %106, i64 0, i64 114
  store i32 %105, ptr %107, align 8
  %108 = getelementptr inbounds %class.State, ptr %8, i32 0, i32 1
  %109 = getelementptr inbounds [315 x i16], ptr %108, i64 0, i64 114
  store i16 2873, ptr %109, align 4
  br label %110

110:                                              ; preds = %104, %98
  %111 = getelementptr inbounds %class.State, ptr %8, i32 0, i32 1
  %112 = getelementptr inbounds [315 x i16], ptr %111, i64 0, i64 115
  %113 = load i16, ptr %112, align 2
  %114 = zext i16 %113 to i32
  %115 = and i32 %114, 1
  %116 = icmp eq i32 %115, 0
  br i1 %116, label %124, label %117

117:                                              ; preds = %110
  %118 = getelementptr inbounds %class.State, ptr %8, i32 0, i32 0
  %119 = getelementptr inbounds [315 x i32], ptr %118, i64 0, i64 115
  %120 = load i32, ptr %119, align 4
  %121 = load i32, ptr %6, align 4
  %122 = add i32 %121, 100
  %123 = icmp ugt i32 %120, %122
  br i1 %123, label %124, label %131

124:                                              ; preds = %117, %110
  %125 = load i32, ptr %6, align 4
  %126 = add i32 %125, 100
  %127 = getelementptr inbounds %class.State, ptr %8, i32 0, i32 0
  %128 = getelementptr inbounds [315 x i32], ptr %127, i64 0, i64 115
  store i32 %126, ptr %128, align 4
  %129 = getelementptr inbounds %class.State, ptr %8, i32 0, i32 1
  %130 = getelementptr inbounds [315 x i16], ptr %129, i64 0, i64 115
  store i16 731, ptr %130, align 2
  br label %131

131:                                              ; preds = %124, %117
  br label %132

132:                                              ; preds = %131, %79, %74, %72, %59, %54
  %133 = getelementptr inbounds %class.State, ptr %8, i32 0, i32 4
  %134 = getelementptr inbounds [2 x ptr], ptr %133, i64 0, i64 0
  %135 = load ptr, ptr %134, align 8
  %136 = icmp ne ptr %135, null
  br i1 %136, label %137, label %210

137:                                              ; preds = %132
  %138 = getelementptr inbounds %class.State, ptr %8, i32 0, i32 4
  %139 = getelementptr inbounds [2 x ptr], ptr %138, i64 0, i64 0
  %140 = load ptr, ptr %139, align 8
  %141 = getelementptr inbounds %class.State, ptr %140, i32 0, i32 1
  %142 = getelementptr inbounds [315 x i16], ptr %141, i64 0, i64 114
  %143 = load i16, ptr %142, align 4
  %144 = zext i16 %143 to i32
  %145 = and i32 %144, 1
  %146 = icmp ne i32 %145, 0
  br i1 %146, label %147, label %210

147:                                              ; preds = %137
  %148 = load i32, ptr @UseAVX, align 4
  %149 = icmp sle i32 %148, 2
  br i1 %149, label %152, label %150

150:                                              ; preds = %147
  %151 = call noundef zeroext i1 @_ZN10VM_Version19supports_avx512vlbwEv()
  br i1 %151, label %210, label %152

152:                                              ; preds = %150, %147
  %153 = load ptr, ptr %4, align 8
  %154 = call noundef ptr @_ZNK4Node2inEj(ptr noundef nonnull align 8 dereferenceable(52) %153, i32 noundef 1)
  %155 = call noundef i32 @_ZN7Matcher13vector_lengthEPK4Node(ptr noundef %154)
  %156 = icmp ule i32 %155, 8
  br i1 %156, label %157, label %210

157:                                              ; preds = %152
  %158 = load ptr, ptr %4, align 8
  %159 = call noundef zeroext i8 @_ZN7Matcher25vector_element_basic_typeEPK4Node(ptr noundef %158)
  %160 = zext i8 %159 to i32
  %161 = icmp eq i32 %160, 8
  br i1 %161, label %162, label %210

162:                                              ; preds = %157
  %163 = getelementptr inbounds %class.State, ptr %8, i32 0, i32 4
  %164 = getelementptr inbounds [2 x ptr], ptr %163, i64 0, i64 0
  %165 = load ptr, ptr %164, align 8
  %166 = getelementptr inbounds %class.State, ptr %165, i32 0, i32 0
  %167 = getelementptr inbounds [315 x i32], ptr %166, i64 0, i64 114
  %168 = load i32, ptr %167, align 8
  %169 = add i32 %168, 100
  store i32 %169, ptr %7, align 4
  %170 = getelementptr inbounds %class.State, ptr %8, i32 0, i32 1
  %171 = getelementptr inbounds [315 x i16], ptr %170, i64 0, i64 114
  %172 = load i16, ptr %171, align 4
  %173 = zext i16 %172 to i32
  %174 = and i32 %173, 1
  %175 = icmp eq i32 %174, 0
  br i1 %175, label %182, label %176

176:                                              ; preds = %162
  %177 = getelementptr inbounds %class.State, ptr %8, i32 0, i32 0
  %178 = getelementptr inbounds [315 x i32], ptr %177, i64 0, i64 114
  %179 = load i32, ptr %178, align 8
  %180 = load i32, ptr %7, align 4
  %181 = icmp ugt i32 %179, %180
  br i1 %181, label %182, label %188

182:                                              ; preds = %176, %162
  %183 = load i32, ptr %7, align 4
  %184 = getelementptr inbounds %class.State, ptr %8, i32 0, i32 0
  %185 = getelementptr inbounds [315 x i32], ptr %184, i64 0, i64 114
  store i32 %183, ptr %185, align 8
  %186 = getelementptr inbounds %class.State, ptr %8, i32 0, i32 1
  %187 = getelementptr inbounds [315 x i16], ptr %186, i64 0, i64 114
  store i16 1013, ptr %187, align 4
  br label %188

188:                                              ; preds = %182, %176
  %189 = getelementptr inbounds %class.State, ptr %8, i32 0, i32 1
  %190 = getelementptr inbounds [315 x i16], ptr %189, i64 0, i64 115
  %191 = load i16, ptr %190, align 2
  %192 = zext i16 %191 to i32
  %193 = and i32 %192, 1
  %194 = icmp eq i32 %193, 0
  br i1 %194, label %202, label %195

195:                                              ; preds = %188
  %196 = getelementptr inbounds %class.State, ptr %8, i32 0, i32 0
  %197 = getelementptr inbounds [315 x i32], ptr %196, i64 0, i64 115
  %198 = load i32, ptr %197, align 4
  %199 = load i32, ptr %7, align 4
  %200 = add i32 %199, 100
  %201 = icmp ugt i32 %198, %200
  br i1 %201, label %202, label %209

202:                                              ; preds = %195, %188
  %203 = load i32, ptr %7, align 4
  %204 = add i32 %203, 100
  %205 = getelementptr inbounds %class.State, ptr %8, i32 0, i32 0
  %206 = getelementptr inbounds [315 x i32], ptr %205, i64 0, i64 115
  store i32 %204, ptr %206, align 4
  %207 = getelementptr inbounds %class.State, ptr %8, i32 0, i32 1
  %208 = getelementptr inbounds [315 x i16], ptr %207, i64 0, i64 115
  store i16 731, ptr %208, align 2
  br label %209

209:                                              ; preds = %202, %195
  br label %210

210:                                              ; preds = %209, %157, %152, %150, %137, %132
  ret void
}