; Function Attrs: mustprogress nounwind uwtable
define hidden void @_ZN5State21_sub_Op_VectorCastS2XEPK4Node(ptr nocapture noundef nonnull align 8 dereferenceable(1920) %0, ptr noundef %1) local_unnamed_addr #2 align 2 {
  %3 = getelementptr inbounds i8, ptr %0, i64 1904
  %4 = load ptr, ptr %3, align 8
  %.not = icmp eq ptr %4, null
  br i1 %.not, label %.thread32, label %5

5:                                                ; preds = %2
  %6 = getelementptr inbounds i8, ptr %4, i64 1488
  %7 = load i16, ptr %6, align 4
  %8 = and i16 %7, 1
  %.not18 = icmp eq i16 %8, 0
  br i1 %.not18, label %.thread, label %9

9:                                                ; preds = %5
  %10 = load i32, ptr @UseAVX, align 4
  %11 = icmp sgt i32 %10, 2
  br i1 %11, label %12, label %16

12:                                               ; preds = %9
  %13 = load i64, ptr @_ZN19Abstract_VM_Version9_featuresE, align 8
  %14 = and i64 %13, 13019119616
  %15 = icmp eq i64 %14, 13019119616
  br i1 %15, label %._crit_edge, label %16

16:                                               ; preds = %12, %9
  %17 = tail call noundef i32 @_ZN7Matcher22vector_length_in_bytesEPK4Node(ptr noundef %1) #9
  %18 = getelementptr inbounds i8, ptr %1, i64 8
  %19 = load ptr, ptr %18, align 8
  %20 = getelementptr inbounds i8, ptr %19, i64 8
  %21 = load ptr, ptr %20, align 8
  %22 = tail call noundef i32 @_ZN7Matcher22vector_length_in_bytesEPK4Node(ptr noundef %21) #9
  %.not19 = icmp ult i32 %17, %22
  %.pr.pre = load ptr, ptr %3, align 8
  br i1 %.not19, label %32, label %._crit_edge

._crit_edge:                                      ; preds = %16, %12
  %23 = phi ptr [ %4, %12 ], [ %.pr.pre, %16 ]
  %24 = getelementptr inbounds i8, ptr %23, i64 456
  %25 = load i32, ptr %24, align 8
  %26 = getelementptr inbounds i8, ptr %0, i64 456
  %27 = getelementptr inbounds i8, ptr %0, i64 1488
  store i16 1015, ptr %27, align 8
  %28 = insertelement <2 x i32> poison, i32 %25, i64 0
  %29 = shufflevector <2 x i32> %28, <2 x i32> poison, <2 x i32> zeroinitializer
  %30 = add <2 x i32> %29, <i32 100, i32 200>
  store <2 x i32> %30, ptr %26, align 8
  %31 = getelementptr inbounds i8, ptr %0, i64 1490
  store i16 731, ptr %31, align 2
  br label %.thread

32:                                               ; preds = %16
  %.not20 = icmp eq ptr %.pr.pre, null
  br i1 %.not20, label %.thread32, label %.thread

.thread:                                          ; preds = %5, %._crit_edge, %32
  %.pr44 = phi ptr [ %.pr.pre, %32 ], [ %4, %5 ], [ %23, %._crit_edge ]
  %33 = getelementptr inbounds i8, ptr %.pr44, i64 1488
  %34 = load i16, ptr %33, align 4
  %35 = and i16 %34, 1
  %.not21 = icmp eq i16 %35, 0
  br i1 %.not21, label %.thread46, label %36

36:                                               ; preds = %.thread
  %37 = load i32, ptr @UseAVX, align 4
  %38 = icmp slt i32 %37, 3
  br i1 %38, label %43, label %39

39:                                               ; preds = %36
  %40 = load i64, ptr @_ZN19Abstract_VM_Version9_featuresE, align 8
  %41 = and i64 %40, 13019119616
  %42 = icmp eq i64 %41, 13019119616
  br i1 %42, label %.thread46, label %43

43:                                               ; preds = %39, %36
  %44 = getelementptr inbounds i8, ptr %1, i64 8
  %45 = load ptr, ptr %44, align 8
  %46 = getelementptr inbounds i8, ptr %45, i64 8
  %47 = load ptr, ptr %46, align 8
  %48 = tail call noundef i32 @_ZN7Matcher13vector_lengthEPK4Node(ptr noundef %47) #9
  %49 = icmp eq i32 %48, 16
  br i1 %49, label %50, label %._crit_edge35

._crit_edge35:                                    ; preds = %43
  %.pr31.pre = load ptr, ptr %3, align 8
  br label %77

50:                                               ; preds = %43
  %51 = tail call noundef zeroext i8 @_ZN7Matcher25vector_element_basic_typeEPK4Node(ptr noundef nonnull %1) #9
  %52 = icmp eq i8 %51, 8
  %.pr31.pre36 = load ptr, ptr %3, align 8
  br i1 %52, label %53, label %77

53:                                               ; preds = %50
  %54 = getelementptr inbounds i8, ptr %.pr31.pre36, i64 456
  %55 = load i32, ptr %54, align 8
  %56 = add i32 %55, 100
  %57 = getelementptr inbounds i8, ptr %0, i64 1488
  %58 = load i16, ptr %57, align 8
  %59 = and i16 %58, 1
  %60 = icmp eq i16 %59, 0
  %61 = getelementptr inbounds i8, ptr %0, i64 456
  %62 = load i32, ptr %61, align 8
  %63 = icmp ugt i32 %62, %56
  %or.cond = select i1 %60, i1 true, i1 %63
  br i1 %or.cond, label %64, label %65

64:                                               ; preds = %53
  store i32 %56, ptr %61, align 8
  store i16 2873, ptr %57, align 8
  br label %65

65:                                               ; preds = %53, %64
  %66 = getelementptr inbounds i8, ptr %0, i64 1490
  %67 = load i16, ptr %66, align 2
  %68 = and i16 %67, 1
  %69 = icmp eq i16 %68, 0
  br i1 %69, label %._crit_edge38, label %70

._crit_edge38:                                    ; preds = %65
  %.pre40 = add i32 %55, 200
  br label %75

70:                                               ; preds = %65
  %71 = getelementptr inbounds i8, ptr %0, i64 460
  %72 = load i32, ptr %71, align 4
  %73 = add i32 %55, 200
  %74 = icmp ugt i32 %72, %73
  br i1 %74, label %75, label %.thread46

75:                                               ; preds = %._crit_edge38, %70
  %.pre-phi41 = phi i32 [ %.pre40, %._crit_edge38 ], [ %73, %70 ]
  %76 = getelementptr inbounds i8, ptr %0, i64 460
  store i32 %.pre-phi41, ptr %76, align 4
  store i16 731, ptr %66, align 2
  br label %.thread46

77:                                               ; preds = %._crit_edge35, %50
  %.pr31 = phi ptr [ %.pr31.pre, %._crit_edge35 ], [ %.pr31.pre36, %50 ]
  %.not22 = icmp eq ptr %.pr31, null
  br i1 %.not22, label %.thread32, label %.thread46

.thread46:                                        ; preds = %.thread, %39, %75, %70, %77
  %.pr3149 = phi ptr [ %.pr31, %77 ], [ %.pr44, %.thread ], [ %.pr44, %39 ], [ %.pr31.pre36, %75 ], [ %.pr31.pre36, %70 ]
  %78 = getelementptr inbounds i8, ptr %.pr3149, i64 1488
  %79 = load i16, ptr %78, align 4
  %80 = and i16 %79, 1
  %.not23 = icmp eq i16 %80, 0
  br i1 %.not23, label %.thread32, label %81

81:                                               ; preds = %.thread46
  %82 = load i32, ptr @UseAVX, align 4
  %83 = icmp slt i32 %82, 3
  br i1 %83, label %88, label %84

84:                                               ; preds = %81
  %85 = load i64, ptr @_ZN19Abstract_VM_Version9_featuresE, align 8
  %86 = and i64 %85, 13019119616
  %87 = icmp eq i64 %86, 13019119616
  br i1 %87, label %.thread32, label %88

88:                                               ; preds = %84, %81
  %89 = getelementptr inbounds i8, ptr %1, i64 8
  %90 = load ptr, ptr %89, align 8
  %91 = getelementptr inbounds i8, ptr %90, i64 8
  %92 = load ptr, ptr %91, align 8
  %93 = tail call noundef i32 @_ZN7Matcher13vector_lengthEPK4Node(ptr noundef %92) #9
  %94 = icmp ult i32 %93, 9
  br i1 %94, label %95, label %.thread32

95:                                               ; preds = %88
  %96 = tail call noundef zeroext i8 @_ZN7Matcher25vector_element_basic_typeEPK4Node(ptr noundef nonnull %1) #9
  %97 = icmp eq i8 %96, 8
  br i1 %97, label %98, label %.thread32

98:                                               ; preds = %95
  %99 = load ptr, ptr %3, align 8
  %100 = getelementptr inbounds i8, ptr %99, i64 456
  %101 = load i32, ptr %100, align 8
  %102 = add i32 %101, 100
  %103 = getelementptr inbounds i8, ptr %0, i64 1488
  %104 = load i16, ptr %103, align 8
  %105 = and i16 %104, 1
  %106 = icmp eq i16 %105, 0
  %107 = getelementptr inbounds i8, ptr %0, i64 456
  %108 = load i32, ptr %107, align 8
  %109 = icmp ugt i32 %108, %102
  %or.cond28 = select i1 %106, i1 true, i1 %109
  br i1 %or.cond28, label %110, label %111

110:                                              ; preds = %98
  store i32 %102, ptr %107, align 8
  store i16 1013, ptr %103, align 8
  br label %111

111:                                              ; preds = %98, %110
  %112 = getelementptr inbounds i8, ptr %0, i64 1490
  %113 = load i16, ptr %112, align 2
  %114 = and i16 %113, 1
  %115 = icmp eq i16 %114, 0
  br i1 %115, label %._crit_edge39, label %116

._crit_edge39:                                    ; preds = %111
  %.pre = add i32 %101, 200
  br label %121

116:                                              ; preds = %111
  %117 = getelementptr inbounds i8, ptr %0, i64 460
  %118 = load i32, ptr %117, align 4
  %119 = add i32 %101, 200
  %120 = icmp ugt i32 %118, %119
  br i1 %120, label %121, label %.thread32

121:                                              ; preds = %._crit_edge39, %116
  %.pre-phi = phi i32 [ %.pre, %._crit_edge39 ], [ %119, %116 ]
  %122 = getelementptr inbounds i8, ptr %0, i64 460
  store i32 %.pre-phi, ptr %122, align 4
  store i16 731, ptr %112, align 2
  br label %.thread32

.thread32:                                        ; preds = %2, %32, %116, %121, %95, %88, %84, %.thread46, %77
  ret void
}